target datalayout = "e-m:e-p270:32:32-p271:32:32-p272:64:64-i64:64-i128:128-f80:128-n8:16:32:64-S128"
target triple = "x86_64-pc-linux-gnu"

%struct._zend_llist = type { ptr, ptr, i64, i64, ptr, i8, ptr }
%struct._zend_extension_persist_data = type { ptr, i64, ptr }

@zend_extension_flags = dso_local global i32 0, align 4
@zend_extensions = dso_local global %struct._zend_llist zeroinitializer, align 8

; Function Attrs: nounwind uwtable
define dso_local i64 @zend_extensions_op_array_persist(ptr noundef %0, ptr noundef %1) #0 {
  %3 = alloca i64, align 8
  %4 = alloca ptr, align 8
  %5 = alloca ptr, align 8
  %6 = alloca %struct._zend_extension_persist_data, align 8
  store ptr %0, ptr %4, align 8, !tbaa !88
  store ptr %1, ptr %5, align 8, !tbaa !9
  %7 = load i32, ptr @zend_extension_flags, align 4, !tbaa !34
  %8 = and i32 %7, 16
  %9 = icmp ne i32 %8, 0
  br i1 %9, label %10, label %18

10:                                               ; preds = %2
  call void @llvm.lifetime.start.p0(i64 24, ptr %6) #11
  %11 = load ptr, ptr %4, align 8, !tbaa !88
  %12 = getelementptr inbounds nuw %struct._zend_extension_persist_data, ptr %6, i32 0, i32 0
  store ptr %11, ptr %12, align 8, !tbaa !89
  %13 = getelementptr inbounds nuw %struct._zend_extension_persist_data, ptr %6, i32 0, i32 1
  store i64 0, ptr %13, align 8, !tbaa !91
  %14 = load ptr, ptr %5, align 8, !tbaa !9
  %15 = getelementptr inbounds nuw %struct._zend_extension_persist_data, ptr %6, i32 0, i32 2
  store ptr %14, ptr %15, align 8, !tbaa !92
  call void @zend_llist_apply_with_argument(ptr noundef @zend_extensions, ptr noundef @zend_extension_op_array_persist_handler, ptr noundef %6)
  %16 = getelementptr inbounds nuw %struct._zend_extension_persist_data, ptr %6, i32 0, i32 1
  %17 = load i64, ptr %16, align 8, !tbaa !91
  store i64 %17, ptr %3, align 8
  call void @llvm.lifetime.end.p0(i64 24, ptr %6) #11
  br label %19

18:                                               ; preds = %2
  store i64 0, ptr %3, align 8
  br label %19

19:                                               ; preds = %18, %10
  %20 = load i64, ptr %3, align 8
  ret i64 %20
}