; Function Attrs: nounwind uwtable
define dso_local i64 @zend_extensions_op_array_persist(ptr noundef %0, ptr noundef %1) local_unnamed_addr #0 {
  %3 = alloca %struct._zend_extension_persist_data, align 8
  %4 = load i32, ptr @zend_extension_flags, align 4, !tbaa !25
  %5 = and i32 %4, 16
  %.not = icmp eq i32 %5, 0
  br i1 %.not, label %10, label %6

6:                                                ; preds = %2
  call void @llvm.lifetime.start.p0(i64 24, ptr nonnull %3) #14
  store ptr %0, ptr %3, align 8, !tbaa !71
  %7 = getelementptr inbounds nuw i8, ptr %3, i64 8
  store i64 0, ptr %7, align 8, !tbaa !73
  %8 = getelementptr inbounds nuw i8, ptr %3, i64 16
  store ptr %1, ptr %8, align 8, !tbaa !74
  call void @zend_llist_apply_with_argument(ptr noundef nonnull @zend_extensions, ptr noundef nonnull @zend_extension_op_array_persist_handler, ptr noundef nonnull %3) #14
  %9 = load i64, ptr %7, align 8, !tbaa !73
  call void @llvm.lifetime.end.p0(i64 24, ptr nonnull %3) #14
  br label %10

10:                                               ; preds = %2, %6
  %.0 = phi i64 [ %9, %6 ], [ 0, %2 ]
  ret i64 %.0
}